target datalayout = "e-m:e-p270:32:32-p271:32:32-p272:64:64-i64:64-i128:128-f80:128-n8:16:32:64-S128"
target triple = "x86_64-pc-linux-gnu"

%struct.t_united_h = type { ptr, i32 }
%"class.std::filesystem::__cxx11::path" = type { %"class.std::__cxx11::basic_string", %"struct.std::filesystem::__cxx11::path::_List" }
%"class.std::__cxx11::basic_string" = type { %"struct.std::__cxx11::basic_string<char>::_Alloc_hider", i64, %union.anon }
%"struct.std::__cxx11::basic_string<char>::_Alloc_hider" = type { ptr }
%union.anon = type { i64, [8 x i8] }
%"struct.std::filesystem::__cxx11::path::_List" = type { %"class.std::unique_ptr.2" }
%"class.std::unique_ptr.2" = type { %"struct.std::__uniq_ptr_data.3" }
%"struct.std::__uniq_ptr_data.3" = type { %"class.std::__uniq_ptr_impl.4" }
%"class.std::__uniq_ptr_impl.4" = type { %"class.std::tuple.5" }
%"class.std::tuple.5" = type { %"struct.std::_Tuple_impl.6" }
%"struct.std::_Tuple_impl.6" = type { %"struct.std::_Head_base.9" }
%"struct.std::_Head_base.9" = type { ptr }
%struct.gmx_structurefactors = type { i32, ptr, ptr, ptr, ptr, ptr, ptr }

@.str.1 = private unnamed_addr constant [124 x i8] c"generated/home/dtcxzyw/WorkSpace/Projects/compilers/llvm-opt-benchmark/bench/gromacs/gromacs/src/gromacs/gmxana/sfactor.cpp\00", align 1
@.str.30 = private unnamed_addr constant [5 x i8] c"tndx\00", align 1
@.str.31 = private unnamed_addr constant [51 x i8] c"\0AError: atom (%s) not in list (%d types checked)!\0A\00", align 1

; Function Attrs: mustprogress nounwind uwtable
define internal noundef i32 @_Z5asizeIZ16return_atom_typePKcP20gmx_structurefactorsE10t_united_hLi9EEiRAT0__T_(ptr noundef nonnull align 8 dereferenceable(144) %0) #2 {
  %2 = alloca ptr, align 8
  store ptr %0, ptr %2, align 8
  ret i32 9
}

; Function Attrs: mustprogress uwtable
define internal void @_ZL13gmx_snew_implIiEvPKcS1_iRPT_m(ptr noundef %0, ptr noundef %1, i32 noundef %2, ptr noundef nonnull align 8 dereferenceable(8) %3, i64 noundef %4) #0 {
  %6 = alloca ptr, align 8
  %7 = alloca ptr, align 8
  %8 = alloca i32, align 4
  %9 = alloca ptr, align 8
  %10 = alloca i64, align 8
  store ptr %0, ptr %6, align 8
  store ptr %1, ptr %7, align 8
  store i32 %2, ptr %8, align 4
  store ptr %3, ptr %9, align 8
  store i64 %4, ptr %10, align 8
  %11 = load ptr, ptr %6, align 8
  %12 = load ptr, ptr %7, align 8
  %13 = load i32, ptr %8, align 4
  %14 = load i64, ptr %10, align 8
  %15 = call noundef ptr @_Z11save_callocPKcS0_imm(ptr noundef %11, ptr noundef %12, i32 noundef %13, i64 noundef %14, i64 noundef 4)
  %16 = load ptr, ptr %9, align 8
  store ptr %15, ptr %16, align 8
  ret void
}

; Function Attrs: mustprogress uwtable
define noundef i32 @_Z16return_atom_typePKcP20gmx_structurefactors(ptr noundef %0, ptr noundef %1) #0 personality ptr @__gxx_personality_v0 {
  %3 = alloca i32, align 4
  %4 = alloca ptr, align 8
  %5 = alloca ptr, align 8
  %6 = alloca [9 x %struct.t_united_h], align 16
  %7 = alloca i32, align 4
  %8 = alloca i32, align 4
  %9 = alloca ptr, align 8
  %10 = alloca i32, align 4
  %11 = alloca i32, align 4
  %12 = alloca i32, align 4
  %13 = alloca ptr, align 8
  %14 = alloca %"class.std::filesystem::__cxx11::path", align 8
  %15 = alloca ptr, align 8
  %16 = alloca i32, align 4
  store ptr %0, ptr %4, align 8
  store ptr %1, ptr %5, align 8
  call void @llvm.memcpy.p0.p0.i64(ptr align 16 %6, ptr align 16 @__const._Z16return_atom_typePKcP20gmx_structurefactors.uh, i64 144, i1 false)
  store i32 0, ptr %8, align 4
  store i32 0, ptr %11, align 4
  %17 = load ptr, ptr %5, align 8
  store ptr %17, ptr %13, align 8
  %18 = load ptr, ptr %13, align 8
  %19 = getelementptr inbounds %struct.gmx_structurefactors, ptr %18, i32 0, i32 0
  %20 = load i32, ptr %19, align 8
  store i32 %20, ptr %12, align 4
  %21 = load i32, ptr %12, align 4
  %22 = sext i32 %21 to i64
  call void @_ZL13gmx_snew_implIiEvPKcS1_iRPT_m(ptr noundef @.str.30, ptr noundef @.str.1, i32 noundef 383, ptr noundef nonnull align 8 dereferenceable(8) %9, i64 noundef %22)
  store i32 0, ptr %7, align 4
  br label %23

23:                                               ; preds = %46, %2
  %24 = load i32, ptr %7, align 4
  %25 = call noundef i32 @_Z5asizeIZ16return_atom_typePKcP20gmx_structurefactorsE10t_united_hLi9EEiRAT0__T_(ptr noundef nonnull align 8 dereferenceable(144) %6)
  %26 = icmp slt i32 %24, %25
  br i1 %26, label %27, label %49

27:                                               ; preds = %23
  %28 = load ptr, ptr %4, align 8
  %29 = load i32, ptr %7, align 4
  %30 = sext i32 %29 to i64
  %31 = getelementptr inbounds [9 x %struct.t_united_h], ptr %6, i64 0, i64 %30
  %32 = getelementptr inbounds %struct.t_united_h, ptr %31, i32 0, i32 0
  %33 = load ptr, ptr %32, align 16
  %34 = call i32 @strcmp(ptr noundef %28, ptr noundef %33) #11
  %35 = icmp eq i32 %34, 0
  br i1 %35, label %36, label %45

36:                                               ; preds = %27
  %37 = load i32, ptr %12, align 4
  %38 = sub nsw i32 %37, 1
  %39 = load i32, ptr %7, align 4
  %40 = sext i32 %39 to i64
  %41 = getelementptr inbounds [9 x %struct.t_united_h], ptr %6, i64 0, i64 %40
  %42 = getelementptr inbounds %struct.t_united_h, ptr %41, i32 0, i32 1
  %43 = load i32, ptr %42, align 8
  %44 = add nsw i32 %38, %43
  store i32 %44, ptr %3, align 4
  br label %142

45:                                               ; preds = %27
  br label %46

46:                                               ; preds = %45
  %47 = load i32, ptr %7, align 4
  %48 = add nsw i32 %47, 1
  store i32 %48, ptr %7, align 4
  br label %23, !llvm.loop !21

49:                                               ; preds = %23
  store i32 0, ptr %7, align 4
  br label %50

50:                                               ; preds = %82, %49
  %51 = load i32, ptr %7, align 4
  %52 = load i32, ptr %12, align 4
  %53 = icmp slt i32 %51, %52
  br i1 %53, label %54, label %85

54:                                               ; preds = %50
  %55 = load ptr, ptr %4, align 8
  %56 = load ptr, ptr %13, align 8
  %57 = getelementptr inbounds %struct.gmx_structurefactors, ptr %56, i32 0, i32 6
  %58 = load ptr, ptr %57, align 8
  %59 = load i32, ptr %7, align 4
  %60 = sext i32 %59 to i64
  %61 = getelementptr inbounds ptr, ptr %58, i64 %60
  %62 = load ptr, ptr %61, align 8
  %63 = load ptr, ptr %13, align 8
  %64 = getelementptr inbounds %struct.gmx_structurefactors, ptr %63, i32 0, i32 6
  %65 = load ptr, ptr %64, align 8
  %66 = load i32, ptr %7, align 4
  %67 = sext i32 %66 to i64
  %68 = getelementptr inbounds ptr, ptr %65, i64 %67
  %69 = load ptr, ptr %68, align 8
  %70 = call i64 @strlen(ptr noundef %69) #11
  %71 = call i32 @strncmp(ptr noundef %55, ptr noundef %62, i64 noundef %70) #11
  %72 = icmp eq i32 %71, 0
  br i1 %72, label %73, label %81

73:                                               ; preds = %54
  %74 = load i32, ptr %7, align 4
  %75 = load ptr, ptr %9, align 8
  %76 = load i32, ptr %8, align 4
  %77 = sext i32 %76 to i64
  %78 = getelementptr inbounds i32, ptr %75, i64 %77
  store i32 %74, ptr %78, align 4
  %79 = load i32, ptr %8, align 4
  %80 = add nsw i32 %79, 1
  store i32 %80, ptr %8, align 4
  br label %81

81:                                               ; preds = %73, %54
  br label %82

82:                                               ; preds = %81
  %83 = load i32, ptr %7, align 4
  %84 = add nsw i32 %83, 1
  store i32 %84, ptr %7, align 4
  br label %50, !llvm.loop !22

85:                                               ; preds = %50
  %86 = load i32, ptr %8, align 4
  %87 = icmp eq i32 %86, 0
  br i1 %87, label %88, label %96

88:                                               ; preds = %85
  call void @_ZNSt10filesystem7__cxx114pathC2IA124_cS1_EERKT_NS1_6formatE(ptr noundef nonnull align 8 dereferenceable(40) %14, ptr noundef nonnull align 1 dereferenceable(124) @.str.1, i8 noundef zeroext 2)
  %89 = load ptr, ptr %4, align 8
  %90 = load i32, ptr %7, align 4
  invoke void (i32, ptr, i32, ptr, ...) @_Z9gmx_fataliRKNSt10filesystem7__cxx114pathEiPKcz(i32 noundef 0, ptr noundef nonnull align 8 dereferenceable(40) %14, i32 noundef 404, ptr noundef @.str.31, ptr noundef %89, i32 noundef %90) #12
          to label %91 unwind label %92

91:                                               ; preds = %88
  unreachable

92:                                               ; preds = %88
  %93 = landingpad { ptr, i32 }
          cleanup
  %94 = extractvalue { ptr, i32 } %93, 0
  store ptr %94, ptr %15, align 8
  %95 = extractvalue { ptr, i32 } %93, 1
  store i32 %95, ptr %16, align 4
  call void @_ZNSt10filesystem7__cxx114pathD2Ev(ptr noundef nonnull align 8 dereferenceable(40) %14) #9
  br label %144

96:                                               ; preds = %85
  store i32 0, ptr %10, align 4
  store i32 0, ptr %7, align 4
  br label %97

97:                                               ; preds = %137, %96
  %98 = load i32, ptr %7, align 4
  %99 = load i32, ptr %8, align 4
  %100 = icmp slt i32 %98, %99
  br i1 %100, label %101, label %140

101:                                              ; preds = %97
  %102 = load ptr, ptr %13, align 8
  %103 = getelementptr inbounds %struct.gmx_structurefactors, ptr %102, i32 0, i32 6
  %104 = load ptr, ptr %103, align 8
  %105 = load ptr, ptr %9, align 8
  %106 = load i32, ptr %7, align 4
  %107 = sext i32 %106 to i64
  %108 = getelementptr inbounds i32, ptr %105, i64 %107
  %109 = load i32, ptr %108, align 4
  %110 = sext i32 %109 to i64
  %111 = getelementptr inbounds ptr, ptr %104, i64 %110
  %112 = load ptr, ptr %111, align 8
  %113 = call i64 @strlen(ptr noundef %112) #11
  %114 = load i32, ptr %10, align 4
  %115 = sext i32 %114 to i64
  %116 = icmp ugt i64 %113, %115
  br i1 %116, label %117, label %136

117:                                              ; preds = %101
  %118 = load ptr, ptr %13, align 8
  %119 = getelementptr inbounds %struct.gmx_structurefactors, ptr %118, i32 0, i32 6
  %120 = load ptr, ptr %119, align 8
  %121 = load ptr, ptr %9, align 8
  %122 = load i32, ptr %7, align 4
  %123 = sext i32 %122 to i64
  %124 = getelementptr inbounds i32, ptr %121, i64 %123
  %125 = load i32, ptr %124, align 4
  %126 = sext i32 %125 to i64
  %127 = getelementptr inbounds ptr, ptr %120, i64 %126
  %128 = load ptr, ptr %127, align 8
  %129 = call i64 @strlen(ptr noundef %128) #11
  %130 = trunc i64 %129 to i32
  store i32 %130, ptr %10, align 4
  %131 = load ptr, ptr %9, align 8
  %132 = load i32, ptr %7, align 4
  %133 = sext i32 %132 to i64
  %134 = getelementptr inbounds i32, ptr %131, i64 %133
  %135 = load i32, ptr %134, align 4
  store i32 %135, ptr %11, align 4
  br label %136

136:                                              ; preds = %117, %101
  br label %137

137:                                              ; preds = %136
  %138 = load i32, ptr %7, align 4
  %139 = add nsw i32 %138, 1
  store i32 %139, ptr %7, align 4
  br label %97, !llvm.loop !23

140:                                              ; preds = %97
  %141 = load i32, ptr %11, align 4
  store i32 %141, ptr %3, align 4
  br label %142

142:                                              ; preds = %140, %36
  %143 = load i32, ptr %3, align 4
  ret i32 %143

144:                                              ; preds = %92
  %145 = load ptr, ptr %15, align 8
  %146 = load i32, ptr %16, align 4
  %147 = insertvalue { ptr, i32 } poison, ptr %145, 0
  %148 = insertvalue { ptr, i32 } %147, i32 %146, 1
  resume { ptr, i32 } %148
}