; Function Attrs: mustprogress uwtable
define noundef i32 @_Z16return_atom_typePKcP20gmx_structurefactors(ptr noundef %0, ptr nocapture noundef readonly %1) local_unnamed_addr #0 personality ptr @__gxx_personality_v0 {
  %3 = alloca %"class.std::filesystem::__cxx11::path", align 8
  %4 = load i32, ptr %1, align 8
  %5 = sext i32 %4 to i64
  %6 = tail call noundef ptr @_Z11save_callocPKcS0_imm(ptr noundef nonnull @.str.30, ptr noundef nonnull @.str.1, i32 noundef 383, i64 noundef %5, i64 noundef 4)
  br label %10

7:                                                ; preds = %10
  %indvars.iv.next = add nuw nsw i64 %indvars.iv, 1
  %exitcond.not = icmp eq i64 %indvars.iv.next, 9
  br i1 %exitcond.not, label %.preheader45, label %10, !llvm.loop !21

.preheader45:                                     ; preds = %7
  %8 = icmp sgt i32 %4, 0
  br i1 %8, label %.lr.ph, label %._crit_edge.thread

.lr.ph:                                           ; preds = %.preheader45
  %9 = getelementptr inbounds i8, ptr %1, i64 48
  %wide.trip.count = zext nneg i32 %4 to i64
  br label %20

10:                                               ; preds = %2, %7
  %indvars.iv = phi i64 [ 0, %2 ], [ %indvars.iv.next, %7 ]
  %11 = getelementptr inbounds [9 x %struct.t_united_h], ptr @__const._Z16return_atom_typePKcP20gmx_structurefactors.uh, i64 0, i64 %indvars.iv
  %12 = load ptr, ptr %11, align 16
  %13 = tail call i32 @strcmp(ptr noundef nonnull dereferenceable(1) %0, ptr noundef nonnull dereferenceable(1) %12) #17
  %14 = icmp eq i32 %13, 0
  br i1 %14, label %15, label %7

15:                                               ; preds = %10
  %16 = add nsw i32 %4, -1
  %17 = getelementptr inbounds i8, ptr %11, i64 8
  %18 = load i32, ptr %17, align 8
  %19 = add nsw i32 %16, %18
  br label %.loopexit

20:                                               ; preds = %.lr.ph, %32
  %indvars.iv58 = phi i64 [ 0, %.lr.ph ], [ %indvars.iv.next59, %32 ]
  %.03647 = phi i32 [ 0, %.lr.ph ], [ %.137, %32 ]
  %21 = load ptr, ptr %9, align 8
  %22 = getelementptr inbounds ptr, ptr %21, i64 %indvars.iv58
  %23 = load ptr, ptr %22, align 8
  %24 = tail call i64 @strlen(ptr noundef nonnull dereferenceable(1) %23) #17
  %25 = tail call i32 @strncmp(ptr noundef %0, ptr noundef %23, i64 noundef %24) #17
  %26 = icmp eq i32 %25, 0
  br i1 %26, label %27, label %32

27:                                               ; preds = %20
  %28 = sext i32 %.03647 to i64
  %29 = getelementptr inbounds i32, ptr %6, i64 %28
  %30 = trunc nuw nsw i64 %indvars.iv58 to i32
  store i32 %30, ptr %29, align 4
  %31 = add nsw i32 %.03647, 1
  br label %32

32:                                               ; preds = %20, %27
  %.137 = phi i32 [ %31, %27 ], [ %.03647, %20 ]
  %indvars.iv.next59 = add nuw nsw i64 %indvars.iv58, 1
  %exitcond61.not = icmp eq i64 %indvars.iv.next59, %wide.trip.count
  br i1 %exitcond61.not, label %._crit_edge, label %20, !llvm.loop !22

._crit_edge:                                      ; preds = %32
  %33 = icmp eq i32 %.137, 0
  br i1 %33, label %._crit_edge.thread, label %.preheader

.preheader:                                       ; preds = %._crit_edge
  %34 = icmp sgt i32 %.137, 0
  br i1 %34, label %.lr.ph53, label %.loopexit

.lr.ph53:                                         ; preds = %.preheader
  %35 = getelementptr inbounds i8, ptr %1, i64 48
  %36 = load ptr, ptr %35, align 8
  %wide.trip.count65 = zext nneg i32 %.137 to i64
  br label %40

._crit_edge.thread:                               ; preds = %.preheader45, %._crit_edge
  %.1.lcssa69 = phi i32 [ %4, %._crit_edge ], [ 0, %.preheader45 ]
  call void @_ZNSt10filesystem7__cxx114pathC2IA124_cS1_EERKT_NS1_6formatE(ptr noundef nonnull align 8 dereferenceable(40) %3, ptr noundef nonnull align 1 dereferenceable(124) @.str.1, i8 noundef zeroext 2)
  invoke void (i32, ptr, i32, ptr, ...) @_Z9gmx_fataliRKNSt10filesystem7__cxx114pathEiPKcz(i32 noundef 0, ptr noundef nonnull align 8 dereferenceable(40) %3, i32 noundef 404, ptr noundef nonnull @.str.31, ptr noundef %0, i32 noundef %.1.lcssa69) #18
          to label %37 unwind label %38

37:                                               ; preds = %._crit_edge.thread
  unreachable

38:                                               ; preds = %._crit_edge.thread
  %39 = landingpad { ptr, i32 }
          cleanup
  call void @_ZNSt10filesystem7__cxx114pathD2Ev(ptr noundef nonnull align 8 dereferenceable(40) %3) #15
  resume { ptr, i32 } %39

40:                                               ; preds = %.lr.ph53, %40
  %indvars.iv62 = phi i64 [ 0, %.lr.ph53 ], [ %indvars.iv.next63, %40 ]
  %.03851 = phi i32 [ 0, %.lr.ph53 ], [ %spec.select43, %40 ]
  %.04050 = phi i32 [ 0, %.lr.ph53 ], [ %spec.select, %40 ]
  %41 = getelementptr inbounds i32, ptr %6, i64 %indvars.iv62
  %42 = load i32, ptr %41, align 4
  %43 = sext i32 %42 to i64
  %44 = getelementptr inbounds ptr, ptr %36, i64 %43
  %45 = load ptr, ptr %44, align 8
  %46 = tail call i64 @strlen(ptr noundef nonnull dereferenceable(1) %45) #17
  %47 = sext i32 %.03851 to i64
  %48 = icmp ugt i64 %46, %47
  %49 = trunc i64 %46 to i32
  %spec.select = select i1 %48, i32 %42, i32 %.04050
  %spec.select43 = select i1 %48, i32 %49, i32 %.03851
  %indvars.iv.next63 = add nuw nsw i64 %indvars.iv62, 1
  %exitcond66.not = icmp eq i64 %indvars.iv.next63, %wide.trip.count65
  br i1 %exitcond66.not, label %.loopexit, label %40, !llvm.loop !23

.loopexit:                                        ; preds = %40, %.preheader, %15
  %.0 = phi i32 [ %19, %15 ], [ 0, %.preheader ], [ %spec.select, %40 ]
  ret i32 %.0
}